; Function Attrs: mustprogress uwtable
define internal void @_ZN12_GLOBAL__N_19SynthPass11clear_flagsEv(ptr noundef nonnull align 8 dereferenceable(472) initializes((192, 200), (288, 296), (456, 461), (462, 464), (468, 472)) %0) unnamed_addr #5 align 2 personality ptr @__gxx_personality_v0 {
  %2 = getelementptr inbounds nuw i8, ptr %0, i64 184
  %3 = getelementptr inbounds nuw i8, ptr %0, i64 192
  store i64 0, ptr %3, align 8, !tbaa !20
  %4 = load ptr, ptr %2, align 8, !tbaa !15
  store i8 0, ptr %4, align 1, !tbaa !21
  %5 = getelementptr inbounds nuw i8, ptr %0, i64 280
  %6 = getelementptr inbounds nuw i8, ptr %0, i64 288
  store i64 0, ptr %6, align 8, !tbaa !20
  %7 = load ptr, ptr %5, align 8, !tbaa !15
  store i8 0, ptr %7, align 1, !tbaa !21
  %8 = getelementptr inbounds nuw i8, ptr %0, i64 456
  store i8 0, ptr %8, align 8, !tbaa !27
  %9 = getelementptr inbounds nuw i8, ptr %0, i64 468
  store i32 4, ptr %9, align 4, !tbaa !38
  %10 = getelementptr inbounds nuw i8, ptr %0, i64 457
  %11 = getelementptr inbounds nuw i8, ptr %0, i64 462
  store i8 0, ptr %11, align 2, !tbaa !39
  %12 = getelementptr inbounds nuw i8, ptr %0, i64 463
  store i8 0, ptr %12, align 1, !tbaa !40
  %13 = getelementptr inbounds nuw i8, ptr %0, i64 376
  %14 = getelementptr inbounds nuw i8, ptr %0, i64 384
  store i32 0, ptr %10, align 1
  %15 = load i64, ptr %14, align 8, !tbaa !20
  %16 = tail call noundef nonnull align 8 dereferenceable(32) ptr @_ZNSt7__cxx1112basic_stringIcSt11char_traitsIcESaIcEE10_M_replaceEmmPKcm(ptr noundef nonnull align 8 dereferenceable(32) %13, i64 noundef 0, i64 noundef %15, ptr noundef nonnull @.str.62, i64 noundef 4)
  %17 = getelementptr inbounds nuw i8, ptr %0, i64 464
  store i8 1, ptr %17, align 8, !tbaa !41
  %18 = getelementptr inbounds nuw i8, ptr %0, i64 216
  %19 = getelementptr inbounds nuw i8, ptr %0, i64 224
  %20 = load i64, ptr %19, align 8, !tbaa !20
  %21 = tail call noundef nonnull align 8 dereferenceable(32) ptr @_ZNSt7__cxx1112basic_stringIcSt11char_traitsIcESaIcEE10_M_replaceEmmPKcm(ptr noundef nonnull align 8 dereferenceable(32) %18, i64 noundef 0, i64 noundef %20, ptr noundef nonnull @.str.63, i64 noundef 0)
  %22 = getelementptr inbounds nuw i8, ptr %0, i64 248
  %23 = getelementptr inbounds nuw i8, ptr %0, i64 256
  %24 = load i64, ptr %23, align 8, !tbaa !20
  %25 = tail call noundef nonnull align 8 dereferenceable(32) ptr @_ZNSt7__cxx1112basic_stringIcSt11char_traitsIcESaIcEE10_M_replaceEmmPKcm(ptr noundef nonnull align 8 dereferenceable(32) %22, i64 noundef 0, i64 noundef %24, ptr noundef nonnull @.str.63, i64 noundef 0)
  ret void
}